target datalayout = "e-m:e-p270:32:32-p271:32:32-p272:64:64-i64:64-i128:128-f80:128-n8:16:32:64-S128"
target triple = "x86_64-pc-linux-gnu"

%struct.mpd_t = type { i8, i64, i64, i64, i64, ptr }

@mpd_pow10 = external hidden constant [0 x i64], align 8

; Function Attrs: alwaysinline nounwind uwtable
define hidden i64 @mpd_msword(ptr noundef %0) #1 {
  %2 = alloca ptr, align 8
  store ptr %0, ptr %2, align 8, !tbaa !7
  %3 = load ptr, ptr %2, align 8, !tbaa !7
  %4 = getelementptr inbounds nuw %struct.mpd_t, ptr %3, i32 0, i32 5
  %5 = load ptr, ptr %4, align 8, !tbaa !21
  %6 = load ptr, ptr %2, align 8, !tbaa !7
  %7 = getelementptr inbounds nuw %struct.mpd_t, ptr %6, i32 0, i32 3
  %8 = load i64, ptr %7, align 8, !tbaa !22
  %9 = sub i64 %8, 1
  %10 = getelementptr i64, ptr %5, i64 %9
  %11 = load i64, ptr %10, align 8, !tbaa !3
  ret i64 %11
}

; Function Attrs: alwaysinline nounwind uwtable
define hidden i32 @mpd_isoddword(i64 noundef %0) #1 {
  %2 = alloca i64, align 8
  store i64 %0, ptr %2, align 8, !tbaa !3
  %3 = load i64, ptr %2, align 8, !tbaa !3
  %4 = and i64 %3, 1
  %5 = trunc i64 %4 to i32
  ret i32 %5
}

; Function Attrs: inlinehint nounwind uwtable
define internal void @_mpd_div_word(ptr noundef %0, ptr noundef %1, i64 noundef %2, i64 noundef %3) #2 {
  %5 = alloca ptr, align 8
  %6 = alloca ptr, align 8
  %7 = alloca i64, align 8
  %8 = alloca i64, align 8
  store ptr %0, ptr %5, align 8, !tbaa !24
  store ptr %1, ptr %6, align 8, !tbaa !24
  store i64 %2, ptr %7, align 8, !tbaa !3
  store i64 %3, ptr %8, align 8, !tbaa !3
  %9 = load i64, ptr %7, align 8, !tbaa !3
  %10 = load i64, ptr %8, align 8, !tbaa !3
  %11 = udiv i64 %9, %10
  %12 = load ptr, ptr %5, align 8, !tbaa !24
  store i64 %11, ptr %12, align 8, !tbaa !3
  %13 = load i64, ptr %7, align 8, !tbaa !3
  %14 = load ptr, ptr %5, align 8, !tbaa !24
  %15 = load i64, ptr %14, align 8, !tbaa !3
  %16 = load i64, ptr %8, align 8, !tbaa !3
  %17 = mul i64 %15, %16
  %18 = sub i64 %13, %17
  %19 = load ptr, ptr %6, align 8, !tbaa !24
  store i64 %18, ptr %19, align 8, !tbaa !3
  ret void
}

; Function Attrs: alwaysinline nounwind uwtable
define hidden i32 @mpd_iszerocoeff(ptr noundef %0) #1 {
  %2 = alloca ptr, align 8
  store ptr %0, ptr %2, align 8, !tbaa !7
  %3 = load ptr, ptr %2, align 8, !tbaa !7
  %4 = call i64 @mpd_msword(ptr noundef %3)
  %5 = icmp eq i64 %4, 0
  %6 = zext i1 %5 to i32
  ret i32 %6
}

; Function Attrs: nounwind uwtable
define hidden i32 @mpd_isodd(ptr noundef %0) #0 {
  %2 = alloca i32, align 4
  %3 = alloca ptr, align 8
  %4 = alloca i64, align 8
  %5 = alloca i64, align 8
  %6 = alloca i32, align 4
  store ptr %0, ptr %3, align 8, !tbaa !7
  call void @llvm.lifetime.start.p0(i64 8, ptr %4) #10
  call void @llvm.lifetime.start.p0(i64 8, ptr %5) #10
  %7 = load ptr, ptr %3, align 8, !tbaa !7
  %8 = call i32 @mpd_iszerocoeff(ptr noundef %7)
  %9 = icmp ne i32 %8, 0
  br i1 %9, label %10, label %11

10:                                               ; preds = %1
  store i32 0, ptr %2, align 4
  store i32 1, ptr %6, align 4
  br label %49

11:                                               ; preds = %1
  %12 = load ptr, ptr %3, align 8, !tbaa !7
  %13 = getelementptr inbounds nuw %struct.mpd_t, ptr %12, i32 0, i32 1
  %14 = load i64, ptr %13, align 8, !tbaa !10
  %15 = icmp slt i64 %14, 0
  br i1 %15, label %16, label %33

16:                                               ; preds = %11
  %17 = load ptr, ptr %3, align 8, !tbaa !7
  %18 = getelementptr inbounds nuw %struct.mpd_t, ptr %17, i32 0, i32 1
  %19 = load i64, ptr %18, align 8, !tbaa !10
  %20 = sub i64 0, %19
  call void @_mpd_div_word(ptr noundef %4, ptr noundef %5, i64 noundef %20, i64 noundef 19)
  %21 = load ptr, ptr %3, align 8, !tbaa !7
  %22 = getelementptr inbounds nuw %struct.mpd_t, ptr %21, i32 0, i32 5
  %23 = load ptr, ptr %22, align 8, !tbaa !21
  %24 = load i64, ptr %4, align 8, !tbaa !3
  %25 = getelementptr i64, ptr %23, i64 %24
  %26 = load i64, ptr %25, align 8, !tbaa !3
  %27 = load i64, ptr %5, align 8, !tbaa !3
  %28 = getelementptr [0 x i64], ptr @mpd_pow10, i64 0, i64 %27
  %29 = load i64, ptr %28, align 8, !tbaa !3
  %30 = udiv i64 %26, %29
  store i64 %30, ptr %4, align 8, !tbaa !3
  %31 = load i64, ptr %4, align 8, !tbaa !3
  %32 = call i32 @mpd_isoddword(i64 noundef %31)
  store i32 %32, ptr %2, align 4
  store i32 1, ptr %6, align 4
  br label %49

33:                                               ; preds = %11
  %34 = load ptr, ptr %3, align 8, !tbaa !7
  %35 = getelementptr inbounds nuw %struct.mpd_t, ptr %34, i32 0, i32 1
  %36 = load i64, ptr %35, align 8, !tbaa !10
  %37 = icmp eq i64 %36, 0
  br i1 %37, label %38, label %46

38:                                               ; preds = %33
  %39 = load ptr, ptr %3, align 8, !tbaa !7
  %40 = getelementptr inbounds nuw %struct.mpd_t, ptr %39, i32 0, i32 5
  %41 = load ptr, ptr %40, align 8, !tbaa !21
  %42 = getelementptr i64, ptr %41, i64 0
  %43 = load i64, ptr %42, align 8, !tbaa !3
  %44 = call i32 @mpd_isoddword(i64 noundef %43)
  %45 = icmp ne i32 %44, 0
  br label %46

46:                                               ; preds = %38, %33
  %47 = phi i1 [ false, %33 ], [ %45, %38 ]
  %48 = zext i1 %47 to i32
  store i32 %48, ptr %2, align 4
  store i32 1, ptr %6, align 4
  br label %49

49:                                               ; preds = %46, %16, %10
  call void @llvm.lifetime.end.p0(i64 8, ptr %5) #10
  call void @llvm.lifetime.end.p0(i64 8, ptr %4) #10
  %50 = load i32, ptr %2, align 4
  ret i32 %50
}