; Function Attrs: mustprogress nofree norecurse nosync nounwind willreturn memory(read, inaccessiblemem: none) uwtable
define hidden range(i32 0, 2) i32 @mpd_isodd(ptr noundef readonly captures(none) %0) local_unnamed_addr #14 {
  %2 = getelementptr inbounds nuw i8, ptr %0, i64 40
  %3 = load ptr, ptr %2, align 8, !tbaa !17
  %4 = getelementptr inbounds nuw i8, ptr %0, i64 24
  %5 = load i64, ptr %4, align 8, !tbaa !18
  %6 = getelementptr i64, ptr %3, i64 %5
  %7 = getelementptr i8, ptr %6, i64 -8
  %8 = load i64, ptr %7, align 8, !tbaa !3
  %.not = icmp eq i64 %8, 0
  br i1 %.not, label %30, label %9

9:                                                ; preds = %1
  %10 = getelementptr inbounds nuw i8, ptr %0, i64 8
  %11 = load i64, ptr %10, align 8, !tbaa !7
  %12 = icmp slt i64 %11, 0
  br i1 %12, label %13, label %24

13:                                               ; preds = %9
  %14 = sub i64 0, %11
  %15 = udiv i64 %14, 19
  %.neg = mul nsw i64 %15, -19
  %16 = sub i64 %.neg, %11
  %17 = getelementptr i64, ptr %3, i64 %15
  %18 = load i64, ptr %17, align 8, !tbaa !3
  %19 = getelementptr [0 x i64], ptr @mpd_pow10, i64 0, i64 %16
  %20 = load i64, ptr %19, align 8, !tbaa !3
  %21 = udiv i64 %18, %20
  %22 = trunc i64 %21 to i32
  %23 = and i32 %22, 1
  br label %30

24:                                               ; preds = %9
  %25 = icmp eq i64 %11, 0
  br i1 %25, label %26, label %30

26:                                               ; preds = %24
  %27 = load i64, ptr %3, align 8, !tbaa !3
  %28 = trunc i64 %27 to i32
  %29 = and i32 %28, 1
  br label %30

30:                                               ; preds = %24, %26, %1, %13
  %.0 = phi i32 [ %23, %13 ], [ 0, %1 ], [ 0, %24 ], [ %29, %26 ]
  ret i32 %.0
}